; Function Attrs: mustprogress uwtable
define void @_ZNK5faiss23IndexIVFScalarQuantizer14encode_vectorsElPKfPKlPhb(ptr noundef nonnull align 8 dereferenceable(336) %0, i64 noundef %1, ptr noundef %2, ptr noundef %3, ptr noundef %4, i1 noundef zeroext %5) unnamed_addr #1 align 2 personality ptr @__gxx_personality_v0 {
  %7 = alloca i64, align 8
  %8 = alloca ptr, align 8
  %9 = alloca ptr, align 8
  %10 = alloca ptr, align 8
  %11 = alloca %"class.std::unique_ptr.20", align 8
  %12 = alloca i64, align 8
  %13 = alloca i32, align 4
  %14 = tail call i32 @__kmpc_global_thread_num(ptr nonnull @3)
  store i64 %1, ptr %7, align 8
  store ptr %2, ptr %8, align 8
  store ptr %3, ptr %9, align 8
  store ptr %4, ptr %10, align 8
  %15 = getelementptr inbounds i8, ptr %0, i64 264
  %16 = tail call noundef ptr @_ZNK5faiss15ScalarQuantizer16select_quantizerEv(ptr noundef nonnull align 8 dereferenceable(72) %15)
  store ptr %16, ptr %11, align 8
  br i1 %5, label %17, label %20

17:                                               ; preds = %6
  %18 = getelementptr inbounds i8, ptr %0, i64 48
  %19 = invoke noundef i64 @_ZNK5faiss15Level1Quantizer16coarse_code_sizeEv(ptr noundef nonnull align 8 dereferenceable(72) %18)
          to label %20 unwind label %28

20:                                               ; preds = %6, %17
  %21 = phi i64 [ %19, %17 ], [ 0, %6 ]
  store i64 %21, ptr %12, align 8
  %22 = getelementptr inbounds i8, ptr %0, i64 152
  %23 = load i64, ptr %22, align 8
  %24 = add i64 %23, %21
  %25 = mul i64 %24, %1
  tail call void @llvm.memset.p0.i64(ptr align 1 %4, i8 0, i64 %25, i1 false)
  %26 = icmp sgt i64 %1, 1000
  br i1 %26, label %27, label %33

27:                                               ; preds = %20
  call void (ptr, i32, ptr, ...) @__kmpc_fork_call(ptr nonnull @3, i32 7, ptr nonnull @_ZNK5faiss23IndexIVFScalarQuantizer14encode_vectorsElPKfPKlPhb.omp_outlined, ptr nonnull %0, ptr nonnull %7, ptr nonnull %9, ptr nonnull %8, ptr nonnull %10, ptr nonnull %12, ptr nonnull %11)
  %.pre = load ptr, ptr %11, align 8
  br label %34

28:                                               ; preds = %17
  %29 = landingpad { ptr, i32 }
          cleanup
  %.not.i = icmp eq ptr %16, null
  br i1 %.not.i, label %_ZNSt10unique_ptrIN5faiss15ScalarQuantizer10SQuantizerESt14default_deleteIS2_EED2Ev.exit, label %_ZNKSt14default_deleteIN5faiss15ScalarQuantizer10SQuantizerEEclEPS2_.exit.i

_ZNKSt14default_deleteIN5faiss15ScalarQuantizer10SQuantizerEEclEPS2_.exit.i: ; preds = %28
  %30 = load ptr, ptr %16, align 8
  %31 = getelementptr inbounds i8, ptr %30, i64 24
  %32 = load ptr, ptr %31, align 8
  tail call void %32(ptr noundef nonnull align 8 dereferenceable(8) %16) #10
  br label %_ZNSt10unique_ptrIN5faiss15ScalarQuantizer10SQuantizerESt14default_deleteIS2_EED2Ev.exit

_ZNSt10unique_ptrIN5faiss15ScalarQuantizer10SQuantizerESt14default_deleteIS2_EED2Ev.exit: ; preds = %28, %_ZNKSt14default_deleteIN5faiss15ScalarQuantizer10SQuantizerEEclEPS2_.exit.i
  resume { ptr, i32 } %29

33:                                               ; preds = %20
  tail call void @__kmpc_serialized_parallel(ptr nonnull @3, i32 %14)
  store i32 %14, ptr %13, align 4
  call void @_ZNK5faiss23IndexIVFScalarQuantizer14encode_vectorsElPKfPKlPhb.omp_outlined(ptr nonnull %13, ptr nonnull poison, ptr nonnull %0, ptr %7, ptr %9, ptr %8, ptr %10, ptr %12, ptr %11) #10
  tail call void @__kmpc_end_serialized_parallel(ptr nonnull @3, i32 %14)
  br label %34

34:                                               ; preds = %33, %27
  %35 = phi ptr [ %16, %33 ], [ %.pre, %27 ]
  %.not.i3 = icmp eq ptr %35, null
  br i1 %.not.i3, label %_ZNSt10unique_ptrIN5faiss15ScalarQuantizer10SQuantizerESt14default_deleteIS2_EED2Ev.exit5, label %_ZNKSt14default_deleteIN5faiss15ScalarQuantizer10SQuantizerEEclEPS2_.exit.i4

_ZNKSt14default_deleteIN5faiss15ScalarQuantizer10SQuantizerEEclEPS2_.exit.i4: ; preds = %34
  %36 = load ptr, ptr %35, align 8
  %37 = getelementptr inbounds i8, ptr %36, i64 24
  %38 = load ptr, ptr %37, align 8
  call void %38(ptr noundef nonnull align 8 dereferenceable(8) %35) #10
  br label %_ZNSt10unique_ptrIN5faiss15ScalarQuantizer10SQuantizerESt14default_deleteIS2_EED2Ev.exit5

_ZNSt10unique_ptrIN5faiss15ScalarQuantizer10SQuantizerESt14default_deleteIS2_EED2Ev.exit5: ; preds = %34, %_ZNKSt14default_deleteIN5faiss15ScalarQuantizer10SQuantizerEEclEPS2_.exit.i4
  ret void
}